target datalayout = "e-m:e-p270:32:32-p271:32:32-p272:64:64-i64:64-i128:128-f80:128-n8:16:32:64-S128"
target triple = "x86_64-pc-linux-gnu"

%struct._address = type { i32, i32, ptr, ptr }

@.str.30 = private unnamed_addr constant [1 x i8] zeroinitializer, align 1

; Function Attrs: alwaysinline nounwind
define internal ptr @memcpy.inline(ptr noalias %0, ptr noalias %1, i64 %2) #5 {
  %4 = alloca ptr, align 8
  %5 = alloca ptr, align 8
  %6 = alloca i64, align 8
  store ptr %0, ptr %4, align 8
  store ptr %1, ptr %5, align 8
  store i64 %2, ptr %6, align 8
  %7 = load ptr, ptr %4, align 8
  %8 = load ptr, ptr %5, align 8
  %9 = load i64, ptr %6, align 8
  %10 = load ptr, ptr %4, align 8
  %11 = call i64 @llvm.objectsize.i64.p0(ptr %10, i1 false, i1 true, i1 true)
  %12 = call ptr @__memcpy_chk(ptr noundef %7, ptr noundef %8, i64 noundef %9, i64 noundef %11) #12
  ret ptr %12
}

; Function Attrs: null_pointer_is_valid sspstrong uwtable
define internal ptr @fcwwn_name_res_str(ptr noundef %0) #3 {
  %2 = alloca ptr, align 8
  %3 = alloca ptr, align 8
  %4 = alloca ptr, align 8
  %5 = alloca i32, align 4
  %6 = alloca [6 x i8], align 1
  %7 = alloca i32, align 4
  store ptr %0, ptr %3, align 8
  call void @llvm.lifetime.start.p0(i64 8, ptr %4) #12
  %8 = load ptr, ptr %3, align 8
  %9 = getelementptr inbounds nuw %struct._address, ptr %8, i32 0, i32 2
  %10 = load ptr, ptr %9, align 8
  store ptr %10, ptr %4, align 8
  call void @llvm.lifetime.start.p0(i64 4, ptr %5) #12
  call void @llvm.lifetime.start.p0(i64 6, ptr %6) #12
  %11 = load ptr, ptr %4, align 8
  %12 = getelementptr i8, ptr %11, i64 0
  %13 = load i8, ptr %12, align 1
  %14 = zext i8 %13 to i32
  %15 = and i32 %14, 240
  %16 = ashr i32 %15, 4
  store i32 %16, ptr %5, align 4
  %17 = load i32, ptr %5, align 4
  switch i32 %17, label %118 [
    i32 1, label %18
    i32 2, label %18
    i32 5, label %25
  ]

18:                                               ; preds = %1, %1
  %19 = getelementptr inbounds [6 x i8], ptr %6, i64 0, i64 0
  %20 = load ptr, ptr %4, align 8
  %21 = getelementptr i8, ptr %20, i64 2
  %22 = call ptr @memcpy.inline(ptr noundef %19, ptr noundef %21, i64 noundef 6) #12
  %23 = getelementptr inbounds [6 x i8], ptr %6, i64 0, i64 0
  %24 = call ptr @get_manuf_name(ptr noundef %23, i64 noundef 6)
  store ptr %24, ptr %2, align 8
  store i32 1, ptr %7, align 4
  br label %119

25:                                               ; preds = %1
  %26 = load ptr, ptr %4, align 8
  %27 = getelementptr i8, ptr %26, i64 0
  %28 = load i8, ptr %27, align 1
  %29 = zext i8 %28 to i32
  %30 = and i32 %29, 15
  %31 = shl i32 %30, 4
  %32 = load ptr, ptr %4, align 8
  %33 = getelementptr i8, ptr %32, i64 1
  %34 = load i8, ptr %33, align 1
  %35 = zext i8 %34 to i32
  %36 = and i32 %35, 240
  %37 = ashr i32 %36, 4
  %38 = or i32 %31, %37
  %39 = trunc i32 %38 to i8
  %40 = getelementptr [6 x i8], ptr %6, i64 0, i64 0
  store i8 %39, ptr %40, align 1
  %41 = load ptr, ptr %4, align 8
  %42 = getelementptr i8, ptr %41, i64 1
  %43 = load i8, ptr %42, align 1
  %44 = zext i8 %43 to i32
  %45 = and i32 %44, 15
  %46 = shl i32 %45, 4
  %47 = load ptr, ptr %4, align 8
  %48 = getelementptr i8, ptr %47, i64 2
  %49 = load i8, ptr %48, align 1
  %50 = zext i8 %49 to i32
  %51 = and i32 %50, 240
  %52 = ashr i32 %51, 4
  %53 = or i32 %46, %52
  %54 = trunc i32 %53 to i8
  %55 = getelementptr [6 x i8], ptr %6, i64 0, i64 1
  store i8 %54, ptr %55, align 1
  %56 = load ptr, ptr %4, align 8
  %57 = getelementptr i8, ptr %56, i64 2
  %58 = load i8, ptr %57, align 1
  %59 = zext i8 %58 to i32
  %60 = and i32 %59, 15
  %61 = shl i32 %60, 4
  %62 = load ptr, ptr %4, align 8
  %63 = getelementptr i8, ptr %62, i64 3
  %64 = load i8, ptr %63, align 1
  %65 = zext i8 %64 to i32
  %66 = and i32 %65, 240
  %67 = ashr i32 %66, 4
  %68 = or i32 %61, %67
  %69 = trunc i32 %68 to i8
  %70 = getelementptr [6 x i8], ptr %6, i64 0, i64 2
  store i8 %69, ptr %70, align 1
  %71 = load ptr, ptr %4, align 8
  %72 = getelementptr i8, ptr %71, i64 3
  %73 = load i8, ptr %72, align 1
  %74 = zext i8 %73 to i32
  %75 = and i32 %74, 15
  %76 = shl i32 %75, 4
  %77 = load ptr, ptr %4, align 8
  %78 = getelementptr i8, ptr %77, i64 4
  %79 = load i8, ptr %78, align 1
  %80 = zext i8 %79 to i32
  %81 = and i32 %80, 240
  %82 = ashr i32 %81, 4
  %83 = or i32 %76, %82
  %84 = trunc i32 %83 to i8
  %85 = getelementptr [6 x i8], ptr %6, i64 0, i64 3
  store i8 %84, ptr %85, align 1
  %86 = load ptr, ptr %4, align 8
  %87 = getelementptr i8, ptr %86, i64 4
  %88 = load i8, ptr %87, align 1
  %89 = zext i8 %88 to i32
  %90 = and i32 %89, 15
  %91 = shl i32 %90, 4
  %92 = load ptr, ptr %4, align 8
  %93 = getelementptr i8, ptr %92, i64 5
  %94 = load i8, ptr %93, align 1
  %95 = zext i8 %94 to i32
  %96 = and i32 %95, 240
  %97 = ashr i32 %96, 4
  %98 = or i32 %91, %97
  %99 = trunc i32 %98 to i8
  %100 = getelementptr [6 x i8], ptr %6, i64 0, i64 4
  store i8 %99, ptr %100, align 1
  %101 = load ptr, ptr %4, align 8
  %102 = getelementptr i8, ptr %101, i64 5
  %103 = load i8, ptr %102, align 1
  %104 = zext i8 %103 to i32
  %105 = and i32 %104, 15
  %106 = shl i32 %105, 4
  %107 = load ptr, ptr %4, align 8
  %108 = getelementptr i8, ptr %107, i64 6
  %109 = load i8, ptr %108, align 1
  %110 = zext i8 %109 to i32
  %111 = and i32 %110, 240
  %112 = ashr i32 %111, 4
  %113 = or i32 %106, %112
  %114 = trunc i32 %113 to i8
  %115 = getelementptr [6 x i8], ptr %6, i64 0, i64 5
  store i8 %114, ptr %115, align 1
  %116 = getelementptr inbounds [6 x i8], ptr %6, i64 0, i64 0
  %117 = call ptr @get_manuf_name(ptr noundef %116, i64 noundef 6)
  store ptr %117, ptr %2, align 8
  store i32 1, ptr %7, align 4
  br label %119

118:                                              ; preds = %1
  store ptr @.str.30, ptr %2, align 8
  store i32 1, ptr %7, align 4
  br label %119

119:                                              ; preds = %118, %25, %18
  call void @llvm.lifetime.end.p0(i64 6, ptr %6) #12
  call void @llvm.lifetime.end.p0(i64 4, ptr %5) #12
  call void @llvm.lifetime.end.p0(i64 8, ptr %4) #12
  %120 = load ptr, ptr %2, align 8
  ret ptr %120
}