; Function Attrs: null_pointer_is_valid sspstrong uwtable
define internal ptr @fcwwn_name_res_str(ptr noundef readonly captures(none) %0) #6 {
  %2 = alloca [6 x i8], align 1
  %3 = getelementptr inbounds nuw i8, ptr %0, i64 8
  %4 = load ptr, ptr %3, align 8
  call void @llvm.lifetime.start.p0(i64 6, ptr nonnull %2) #18
  %5 = load i8, ptr %4, align 1
  %6 = lshr i8 %5, 4
  switch i8 %6, label %34 [
    i8 1, label %7
    i8 2, label %7
    i8 5, label %9
  ]

7:                                                ; preds = %1, %1
  %8 = getelementptr i8, ptr %4, i64 2
  call void @llvm.memcpy.p0.p0.i64(ptr noundef nonnull align 1 dereferenceable(6) %2, ptr noundef align 1 dereferenceable(6) %8, i64 noundef 6, i1 noundef false) #18
  br label %.sink.split

9:                                                ; preds = %1
  %10 = getelementptr i8, ptr %4, i64 1
  %11 = load i8, ptr %10, align 1
  %12 = tail call i8 @llvm.fshl.i8(i8 %5, i8 %11, i8 4)
  store i8 %12, ptr %2, align 1
  %13 = getelementptr i8, ptr %4, i64 2
  %14 = load i8, ptr %13, align 1
  %15 = tail call i8 @llvm.fshl.i8(i8 %11, i8 %14, i8 4)
  %16 = getelementptr inbounds nuw i8, ptr %2, i64 1
  store i8 %15, ptr %16, align 1
  %17 = getelementptr i8, ptr %4, i64 3
  %18 = load i8, ptr %17, align 1
  %19 = tail call i8 @llvm.fshl.i8(i8 %14, i8 %18, i8 4)
  %20 = getelementptr inbounds nuw i8, ptr %2, i64 2
  store i8 %19, ptr %20, align 1
  %21 = getelementptr i8, ptr %4, i64 4
  %22 = load i8, ptr %21, align 1
  %23 = tail call i8 @llvm.fshl.i8(i8 %18, i8 %22, i8 4)
  %24 = getelementptr inbounds nuw i8, ptr %2, i64 3
  store i8 %23, ptr %24, align 1
  %25 = getelementptr i8, ptr %4, i64 5
  %26 = load i8, ptr %25, align 1
  %27 = tail call i8 @llvm.fshl.i8(i8 %22, i8 %26, i8 4)
  %28 = getelementptr inbounds nuw i8, ptr %2, i64 4
  store i8 %27, ptr %28, align 1
  %29 = getelementptr i8, ptr %4, i64 6
  %30 = load i8, ptr %29, align 1
  %31 = tail call i8 @llvm.fshl.i8(i8 %26, i8 %30, i8 4)
  %32 = getelementptr inbounds nuw i8, ptr %2, i64 5
  store i8 %31, ptr %32, align 1
  br label %.sink.split

.sink.split:                                      ; preds = %7, %9
  %33 = call ptr @get_manuf_name(ptr noundef nonnull %2, i64 noundef 6)
  br label %34

34:                                               ; preds = %.sink.split, %1
  %.0 = phi ptr [ @.str.30, %1 ], [ %33, %.sink.split ]
  call void @llvm.lifetime.end.p0(i64 6, ptr nonnull %2) #18
  ret ptr %.0
}